target datalayout = "e-m:e-p270:32:32-p271:32:32-p272:64:64-i64:64-i128:128-f80:128-n8:16:32:64-S128"
target triple = "x86_64-pc-linux-gnu"

%struct.expert_field = type { i32, i32 }

@ei_vnc_possible_gtk_vnc_bug = internal global %struct.expert_field zeroinitializer, align 4
@.str.823 = private unnamed_addr constant [5 x i8] c"RFB \00", align 1

; Function Attrs: null_pointer_is_valid sspstrong uwtable
define internal zeroext i1 @vnc_is_client_or_server_version_message(ptr noundef %0, ptr noundef %1, ptr noundef %2) #0 {
  %4 = alloca i1, align 1
  %5 = alloca ptr, align 8
  %6 = alloca ptr, align 8
  %7 = alloca ptr, align 8
  store ptr %0, ptr %5, align 8
  store ptr %1, ptr %6, align 8
  store ptr %2, ptr %7, align 8
  %8 = load ptr, ptr %5, align 8
  %9 = call i32 @tvb_captured_length(ptr noundef %8)
  %10 = icmp ne i32 %9, 12
  br i1 %10, label %11, label %12

11:                                               ; preds = %3
  store i1 false, ptr %4, align 1
  br label %47

12:                                               ; preds = %3
  %13 = load ptr, ptr %5, align 8
  %14 = call i32 @tvb_strncaseeql(ptr noundef %13, i32 noundef 0, ptr noundef @.str.823, i64 noundef 4)
  %15 = icmp ne i32 %14, 0
  br i1 %15, label %16, label %17

16:                                               ; preds = %12
  store i1 false, ptr %4, align 1
  br label %47

17:                                               ; preds = %12
  %18 = load ptr, ptr %5, align 8
  %19 = call zeroext i8 @tvb_get_uint8(ptr noundef %18, i32 noundef 7)
  %20 = zext i8 %19 to i32
  %21 = icmp ne i32 %20, 46
  br i1 %21, label %22, label %23

22:                                               ; preds = %17
  store i1 false, ptr %4, align 1
  br label %47

23:                                               ; preds = %17
  %24 = load ptr, ptr %5, align 8
  %25 = call zeroext i8 @tvb_get_uint8(ptr noundef %24, i32 noundef 11)
  %26 = zext i8 %25 to i32
  %27 = icmp ne i32 %26, 10
  br i1 %27, label %28, label %46

28:                                               ; preds = %23
  %29 = load ptr, ptr %5, align 8
  %30 = call zeroext i8 @tvb_get_uint8(ptr noundef %29, i32 noundef 11)
  %31 = zext i8 %30 to i32
  %32 = icmp eq i32 %31, 0
  br i1 %32, label %33, label %45

33:                                               ; preds = %28
  %34 = load ptr, ptr %6, align 8
  %35 = icmp ne ptr %34, null
  br i1 %35, label %36, label %44

36:                                               ; preds = %33
  %37 = load ptr, ptr %7, align 8
  %38 = icmp ne ptr %37, null
  br i1 %38, label %39, label %44

39:                                               ; preds = %36
  %40 = load ptr, ptr %7, align 8
  %41 = load ptr, ptr %6, align 8
  %42 = load ptr, ptr %5, align 8
  %43 = call ptr @proto_tree_add_expert(ptr noundef %40, ptr noundef %41, ptr noundef @ei_vnc_possible_gtk_vnc_bug, ptr noundef %42, i32 noundef -1, i32 noundef 0)
  br label %44

44:                                               ; preds = %39, %36, %33
  store i1 true, ptr %4, align 1
  br label %47

45:                                               ; preds = %28
  store i1 false, ptr %4, align 1
  br label %47

46:                                               ; preds = %23
  store i1 true, ptr %4, align 1
  br label %47

47:                                               ; preds = %46, %45, %44, %22, %16, %11
  %48 = load i1, ptr %4, align 1
  ret i1 %48
}