; Function Attrs: null_pointer_is_valid sspstrong uwtable
define internal fastcc noundef zeroext i1 @vnc_is_client_or_server_version_message(ptr noundef %0, ptr noundef %1, ptr noundef %2) unnamed_addr #0 {
  %4 = tail call i32 @tvb_captured_length(ptr noundef %0)
  %.not = icmp eq i32 %4, 12
  br i1 %.not, label %5, label %19

5:                                                ; preds = %3
  %6 = tail call i32 @tvb_strncaseeql(ptr noundef %0, i32 noundef 0, ptr noundef nonnull @.str.823, i64 noundef 4)
  %.not14 = icmp eq i32 %6, 0
  br i1 %.not14, label %7, label %19

7:                                                ; preds = %5
  %8 = tail call zeroext i8 @tvb_get_uint8(ptr noundef %0, i32 noundef 7)
  %.not15 = icmp eq i8 %8, 46
  br i1 %.not15, label %9, label %19

9:                                                ; preds = %7
  %10 = tail call zeroext i8 @tvb_get_uint8(ptr noundef %0, i32 noundef 11)
  %.not16 = icmp eq i8 %10, 10
  br i1 %.not16, label %19, label %11

11:                                               ; preds = %9
  %12 = tail call zeroext i8 @tvb_get_uint8(ptr noundef %0, i32 noundef 11)
  %13 = icmp eq i8 %12, 0
  br i1 %13, label %14, label %19

14:                                               ; preds = %11
  %15 = icmp ne ptr %1, null
  %16 = icmp ne ptr %2, null
  %or.cond = and i1 %15, %16
  br i1 %or.cond, label %17, label %19

17:                                               ; preds = %14
  %18 = tail call ptr @proto_tree_add_expert(ptr noundef nonnull %2, ptr noundef nonnull %1, ptr noundef nonnull @ei_vnc_possible_gtk_vnc_bug, ptr noundef %0, i32 noundef -1, i32 noundef 0)
  br label %19

19:                                               ; preds = %9, %11, %14, %17, %7, %5, %3
  %.0 = phi i1 [ false, %3 ], [ false, %5 ], [ false, %7 ], [ true, %17 ], [ true, %14 ], [ false, %11 ], [ true, %9 ]
  ret i1 %.0
}